target datalayout = "e-m:e-p270:32:32-p271:32:32-p272:64:64-i64:64-i128:128-f80:128-n8:16:32:64-S128"
target triple = "x86_64-pc-linux-gnu"

@testctx = internal global ptr null, align 8
@.str.18 = private unnamed_addr constant [33 x i8] c"../openssl/test/evp_extra_test.c\00", align 1
@.str.100 = private unnamed_addr constant [7 x i8] c"sha256\00", align 1
@.str.112 = private unnamed_addr constant [2 x i8] c"0\00", align 1
@.str.115 = private unnamed_addr constant [30 x i8] c"pkey = load_example_rsa_key()\00", align 1
@.str.140 = private unnamed_addr constant [4 x i8] c"RSA\00", align 1
@.str.141 = private unnamed_addr constant [4 x i8] c"DER\00", align 1
@testpropq = internal global ptr null, align 8
@.str.581 = private unnamed_addr constant [47 x i8] c"sha256 = EVP_MD_fetch(testctx, \22sha256\22, NULL)\00", align 1
@.str.582 = private unnamed_addr constant [30 x i8] c"sha256_ctx = EVP_MD_CTX_new()\00", align 1
@.str.583 = private unnamed_addr constant [62 x i8] c"EVP_DigestSignInit(sha256_ctx, &pkey_ctx, sha256, NULL, pkey)\00", align 1
@.str.584 = private unnamed_addr constant [62 x i8] c"EVP_PKEY_CTX_set_rsa_padding(pkey_ctx, RSA_PKCS1_PSS_PADDING)\00", align 1
@.str.585 = private unnamed_addr constant [55 x i8] c"EVP_PKEY_CTX_set_rsa_pss_saltlen(pkey_ctx, test_value)\00", align 1
@.str.586 = private unnamed_addr constant [53 x i8] c"EVP_PKEY_CTX_get_rsa_pss_saltlen(pkey_ctx, &saltlen)\00", align 1
@.str.587 = private unnamed_addr constant [8 x i8] c"saltlen\00", align 1
@.str.588 = private unnamed_addr constant [11 x i8] c"test_value\00", align 1

; Function Attrs: nounwind uwtable
define internal ptr @load_example_key(ptr noundef %0, ptr noundef %1, i64 noundef %2) #0 {
  %4 = alloca ptr, align 8
  %5 = alloca ptr, align 8
  %6 = alloca i64, align 8
  %7 = alloca ptr, align 8
  %8 = alloca ptr, align 8
  %9 = alloca ptr, align 8
  store ptr %0, ptr %4, align 8, !tbaa !4
  store ptr %1, ptr %5, align 8, !tbaa !4
  store i64 %2, ptr %6, align 8, !tbaa !23
  call void @llvm.lifetime.start.p0(i64 8, ptr %7) #8
  store ptr %5, ptr %7, align 8, !tbaa !150
  call void @llvm.lifetime.start.p0(i64 8, ptr %8) #8
  store ptr null, ptr %8, align 8, !tbaa !21
  call void @llvm.lifetime.start.p0(i64 8, ptr %9) #8
  %10 = load ptr, ptr %4, align 8, !tbaa !4
  %11 = load ptr, ptr @testctx, align 8, !tbaa !11
  %12 = load ptr, ptr @testpropq, align 8, !tbaa !4
  %13 = call ptr @OSSL_DECODER_CTX_new_for_pkey(ptr noundef %8, ptr noundef @.str.141, ptr noundef null, ptr noundef %10, i32 noundef 0, ptr noundef %11, ptr noundef %12)
  store ptr %13, ptr %9, align 8, !tbaa !152
  %14 = load ptr, ptr %9, align 8, !tbaa !152
  %15 = load ptr, ptr %7, align 8, !tbaa !150
  %16 = call i32 @OSSL_DECODER_from_data(ptr noundef %14, ptr noundef %15, ptr noundef %6)
  %17 = load ptr, ptr %9, align 8, !tbaa !152
  call void @OSSL_DECODER_CTX_free(ptr noundef %17)
  %18 = load ptr, ptr %8, align 8, !tbaa !21
  call void @llvm.lifetime.end.p0(i64 8, ptr %9) #8
  call void @llvm.lifetime.end.p0(i64 8, ptr %8) #8
  call void @llvm.lifetime.end.p0(i64 8, ptr %7) #8
  ret ptr %18
}

; Function Attrs: nounwind uwtable
define internal ptr @load_example_rsa_key() #0 {
  %1 = call ptr @load_example_key(ptr noundef @.str.140, ptr noundef @kExampleRSAKeyDER, i64 noundef 608)
  ret ptr %1
}

; Function Attrs: nounwind uwtable
define internal i32 @test_EVP_rsa_pss_set_saltlen() #0 {
  %1 = alloca i32, align 4
  %2 = alloca ptr, align 8
  %3 = alloca ptr, align 8
  %4 = alloca ptr, align 8
  %5 = alloca ptr, align 8
  %6 = alloca i32, align 4
  %7 = alloca i32, align 4
  call void @llvm.lifetime.start.p0(i64 4, ptr %1) #8
  store i32 0, ptr %1, align 4, !tbaa !9
  call void @llvm.lifetime.start.p0(i64 8, ptr %2) #8
  store ptr null, ptr %2, align 8, !tbaa !21
  call void @llvm.lifetime.start.p0(i64 8, ptr %3) #8
  store ptr null, ptr %3, align 8, !tbaa !29
  call void @llvm.lifetime.start.p0(i64 8, ptr %4) #8
  store ptr null, ptr %4, align 8, !tbaa !19
  call void @llvm.lifetime.start.p0(i64 8, ptr %5) #8
  store ptr null, ptr %5, align 8, !tbaa !25
  call void @llvm.lifetime.start.p0(i64 4, ptr %6) #8
  store i32 9999, ptr %6, align 4, !tbaa !9
  call void @llvm.lifetime.start.p0(i64 4, ptr %7) #8
  store i32 32, ptr %7, align 4, !tbaa !9
  %8 = call ptr @load_example_rsa_key()
  store ptr %8, ptr %2, align 8, !tbaa !21
  %9 = call i32 @test_ptr(ptr noundef @.str.18, i32 noundef 4529, ptr noundef @.str.115, ptr noundef %8)
  %10 = icmp ne i32 %9, 0
  br i1 %10, label %11, label %50

11:                                               ; preds = %0
  %12 = load ptr, ptr @testctx, align 8, !tbaa !11
  %13 = call ptr @EVP_MD_fetch(ptr noundef %12, ptr noundef @.str.100, ptr noundef null)
  store ptr %13, ptr %4, align 8, !tbaa !19
  %14 = call i32 @test_ptr(ptr noundef @.str.18, i32 noundef 4530, ptr noundef @.str.581, ptr noundef %13)
  %15 = icmp ne i32 %14, 0
  br i1 %15, label %16, label %50

16:                                               ; preds = %11
  %17 = call ptr @EVP_MD_CTX_new()
  store ptr %17, ptr %5, align 8, !tbaa !25
  %18 = call i32 @test_ptr(ptr noundef @.str.18, i32 noundef 4531, ptr noundef @.str.582, ptr noundef %17)
  %19 = icmp ne i32 %18, 0
  br i1 %19, label %20, label %50

20:                                               ; preds = %16
  %21 = load ptr, ptr %5, align 8, !tbaa !25
  %22 = load ptr, ptr %4, align 8, !tbaa !19
  %23 = load ptr, ptr %2, align 8, !tbaa !21
  %24 = call i32 @EVP_DigestSignInit(ptr noundef %21, ptr noundef %3, ptr noundef %22, ptr noundef null, ptr noundef %23)
  %25 = icmp ne i32 %24, 0
  %26 = zext i1 %25 to i32
  %27 = call i32 @test_true(ptr noundef @.str.18, i32 noundef 4532, ptr noundef @.str.583, i32 noundef %26)
  %28 = icmp ne i32 %27, 0
  br i1 %28, label %29, label %50

29:                                               ; preds = %20
  %30 = load ptr, ptr %3, align 8, !tbaa !29
  %31 = call i32 @EVP_PKEY_CTX_set_rsa_padding(ptr noundef %30, i32 noundef 6)
  %32 = icmp ne i32 %31, 0
  %33 = zext i1 %32 to i32
  %34 = call i32 @test_true(ptr noundef @.str.18, i32 noundef 4533, ptr noundef @.str.584, i32 noundef %33)
  %35 = icmp ne i32 %34, 0
  br i1 %35, label %36, label %50

36:                                               ; preds = %29
  %37 = load ptr, ptr %3, align 8, !tbaa !29
  %38 = call i32 @EVP_PKEY_CTX_set_rsa_pss_saltlen(ptr noundef %37, i32 noundef 32)
  %39 = call i32 @test_int_gt(ptr noundef @.str.18, i32 noundef 4534, ptr noundef @.str.585, ptr noundef @.str.112, i32 noundef %38, i32 noundef 0)
  %40 = icmp ne i32 %39, 0
  br i1 %40, label %41, label %50

41:                                               ; preds = %36
  %42 = load ptr, ptr %3, align 8, !tbaa !29
  %43 = call i32 @EVP_PKEY_CTX_get_rsa_pss_saltlen(ptr noundef %42, ptr noundef %6)
  %44 = call i32 @test_int_gt(ptr noundef @.str.18, i32 noundef 4535, ptr noundef @.str.586, ptr noundef @.str.112, i32 noundef %43, i32 noundef 0)
  %45 = icmp ne i32 %44, 0
  br i1 %45, label %46, label %50

46:                                               ; preds = %41
  %47 = load i32, ptr %6, align 4, !tbaa !9
  %48 = call i32 @test_int_eq(ptr noundef @.str.18, i32 noundef 4536, ptr noundef @.str.587, ptr noundef @.str.588, i32 noundef %47, i32 noundef 32)
  %49 = icmp ne i32 %48, 0
  br label %50

50:                                               ; preds = %46, %41, %36, %29, %20, %16, %11, %0
  %51 = phi i1 [ false, %41 ], [ false, %36 ], [ false, %29 ], [ false, %20 ], [ false, %16 ], [ false, %11 ], [ false, %0 ], [ %49, %46 ]
  %52 = zext i1 %51 to i32
  store i32 %52, ptr %1, align 4, !tbaa !9
  %53 = load ptr, ptr %5, align 8, !tbaa !25
  call void @EVP_MD_CTX_free(ptr noundef %53)
  %54 = load ptr, ptr %2, align 8, !tbaa !21
  call void @EVP_PKEY_free(ptr noundef %54)
  %55 = load ptr, ptr %4, align 8, !tbaa !19
  call void @EVP_MD_free(ptr noundef %55)
  %56 = load i32, ptr %1, align 4, !tbaa !9
  call void @llvm.lifetime.end.p0(i64 4, ptr %7) #8
  call void @llvm.lifetime.end.p0(i64 4, ptr %6) #8
  call void @llvm.lifetime.end.p0(i64 8, ptr %5) #8
  call void @llvm.lifetime.end.p0(i64 8, ptr %4) #8
  call void @llvm.lifetime.end.p0(i64 8, ptr %3) #8
  call void @llvm.lifetime.end.p0(i64 8, ptr %2) #8
  call void @llvm.lifetime.end.p0(i64 4, ptr %1) #8
  ret i32 %56
}