; Function Attrs: nounwind uwtable
define internal range(i32 0, 2) i32 @test_EVP_rsa_pss_set_saltlen() #1 {
  %1 = alloca ptr, align 8
  %2 = alloca i64, align 8
  %3 = alloca ptr, align 8
  %4 = alloca ptr, align 8
  %5 = alloca i32, align 4
  call void @llvm.lifetime.start.p0(i64 8, ptr nonnull %4) #9
  store ptr null, ptr %4, align 8, !tbaa !23
  call void @llvm.lifetime.start.p0(i64 4, ptr nonnull %5) #9
  store i32 9999, ptr %5, align 4, !tbaa !25
  call void @llvm.lifetime.start.p0(i64 8, ptr nonnull %1)
  call void @llvm.lifetime.start.p0(i64 8, ptr nonnull %2)
  store ptr @kExampleRSAKeyDER, ptr %1, align 8, !tbaa !19
  store i64 608, ptr %2, align 8, !tbaa !15
  call void @llvm.lifetime.start.p0(i64 8, ptr nonnull %3) #9
  store ptr null, ptr %3, align 8, !tbaa !21
  %6 = load ptr, ptr @testctx, align 8, !tbaa !6
  %7 = call ptr @OSSL_DECODER_CTX_new_for_pkey(ptr noundef nonnull %3, ptr noundef nonnull @.str.141, ptr noundef null, ptr noundef nonnull @.str.140, i32 noundef 0, ptr noundef %6, ptr noundef null) #9
  %8 = call i32 @OSSL_DECODER_from_data(ptr noundef %7, ptr noundef nonnull %1, ptr noundef nonnull %2) #9
  call void @OSSL_DECODER_CTX_free(ptr noundef %7) #9
  %9 = load ptr, ptr %3, align 8, !tbaa !21
  call void @llvm.lifetime.end.p0(i64 8, ptr nonnull %3) #9
  call void @llvm.lifetime.end.p0(i64 8, ptr nonnull %1)
  call void @llvm.lifetime.end.p0(i64 8, ptr nonnull %2)
  %10 = call i32 @test_ptr(ptr noundef nonnull @.str.18, i32 noundef 4529, ptr noundef nonnull @.str.115, ptr noundef %9) #9
  %.not = icmp eq i32 %10, 0
  br i1 %.not, label %42, label %11

11:                                               ; preds = %0
  %12 = load ptr, ptr @testctx, align 8, !tbaa !6
  %13 = call ptr @EVP_MD_fetch(ptr noundef %12, ptr noundef nonnull @.str.100, ptr noundef null) #9
  %14 = call i32 @test_ptr(ptr noundef nonnull @.str.18, i32 noundef 4530, ptr noundef nonnull @.str.581, ptr noundef %13) #9
  %.not7 = icmp eq i32 %14, 0
  br i1 %.not7, label %42, label %15

15:                                               ; preds = %11
  %16 = call ptr @EVP_MD_CTX_new() #9
  %17 = call i32 @test_ptr(ptr noundef nonnull @.str.18, i32 noundef 4531, ptr noundef nonnull @.str.582, ptr noundef %16) #9
  %.not8 = icmp eq i32 %17, 0
  br i1 %.not8, label %42, label %18

18:                                               ; preds = %15
  %19 = call i32 @EVP_DigestSignInit(ptr noundef %16, ptr noundef nonnull %4, ptr noundef %13, ptr noundef null, ptr noundef %9) #9
  %20 = icmp ne i32 %19, 0
  %21 = zext i1 %20 to i32
  %22 = call i32 @test_true(ptr noundef nonnull @.str.18, i32 noundef 4532, ptr noundef nonnull @.str.583, i32 noundef %21) #9
  %.not9 = icmp eq i32 %22, 0
  br i1 %.not9, label %42, label %23

23:                                               ; preds = %18
  %24 = load ptr, ptr %4, align 8, !tbaa !23
  %25 = call i32 @EVP_PKEY_CTX_set_rsa_padding(ptr noundef %24, i32 noundef 6) #9
  %26 = icmp ne i32 %25, 0
  %27 = zext i1 %26 to i32
  %28 = call i32 @test_true(ptr noundef nonnull @.str.18, i32 noundef 4533, ptr noundef nonnull @.str.584, i32 noundef %27) #9
  %.not10 = icmp eq i32 %28, 0
  br i1 %.not10, label %42, label %29

29:                                               ; preds = %23
  %30 = load ptr, ptr %4, align 8, !tbaa !23
  %31 = call i32 @EVP_PKEY_CTX_set_rsa_pss_saltlen(ptr noundef %30, i32 noundef 32) #9
  %32 = call i32 @test_int_gt(ptr noundef nonnull @.str.18, i32 noundef 4534, ptr noundef nonnull @.str.585, ptr noundef nonnull @.str.112, i32 noundef %31, i32 noundef 0) #9
  %.not11 = icmp eq i32 %32, 0
  br i1 %.not11, label %42, label %33

33:                                               ; preds = %29
  %34 = load ptr, ptr %4, align 8, !tbaa !23
  %35 = call i32 @EVP_PKEY_CTX_get_rsa_pss_saltlen(ptr noundef %34, ptr noundef nonnull %5) #9
  %36 = call i32 @test_int_gt(ptr noundef nonnull @.str.18, i32 noundef 4535, ptr noundef nonnull @.str.586, ptr noundef nonnull @.str.112, i32 noundef %35, i32 noundef 0) #9
  %.not12 = icmp eq i32 %36, 0
  br i1 %.not12, label %42, label %37

37:                                               ; preds = %33
  %38 = load i32, ptr %5, align 4, !tbaa !25
  %39 = call i32 @test_int_eq(ptr noundef nonnull @.str.18, i32 noundef 4536, ptr noundef nonnull @.str.587, ptr noundef nonnull @.str.588, i32 noundef %38, i32 noundef 32) #9
  %40 = icmp ne i32 %39, 0
  %41 = zext i1 %40 to i32
  br label %42

42:                                               ; preds = %37, %33, %29, %23, %18, %15, %11, %0
  %.06 = phi ptr [ %13, %37 ], [ %13, %33 ], [ %13, %29 ], [ %13, %23 ], [ %13, %18 ], [ %13, %15 ], [ %13, %11 ], [ null, %0 ]
  %.0 = phi ptr [ %16, %37 ], [ %16, %33 ], [ %16, %29 ], [ %16, %23 ], [ %16, %18 ], [ %16, %15 ], [ null, %11 ], [ null, %0 ]
  %43 = phi i32 [ %41, %37 ], [ 0, %33 ], [ 0, %29 ], [ 0, %23 ], [ 0, %18 ], [ 0, %15 ], [ 0, %11 ], [ 0, %0 ]
  call void @EVP_MD_CTX_free(ptr noundef %.0) #9
  call void @EVP_PKEY_free(ptr noundef %9) #9
  call void @EVP_MD_free(ptr noundef %.06) #9
  call void @llvm.lifetime.end.p0(i64 4, ptr nonnull %5) #9
  call void @llvm.lifetime.end.p0(i64 8, ptr nonnull %4) #9
  ret i32 %43
}